; Function Attrs: mustprogress nofree norecurse nosync nounwind willreturn memory(argmem: readwrite) uwtable
define noundef ptr @_ZNK6icu_7511Formattable8getArrayERiR10UErrorCode(ptr nocapture noundef nonnull readonly align 8 dereferenceable(112) %this, ptr nocapture noundef nonnull writeonly align 4 dereferenceable(4) %count, ptr nocapture noundef nonnull align 4 dereferenceable(4) %status) local_unnamed_addr #12 align 2 {
entry:
  %fType = getelementptr inbounds i8, ptr %this, i64 40
  %0 = load i32, ptr %fType, align 8
  %cmp.not = icmp eq i32 %0, 4
  br i1 %cmp.not, label %if.end, label %if.then

if.then:                                          ; preds = %entry
  %1 = load i32, ptr %status, align 4
  %cmp.i.i = icmp sgt i32 %1, 0
  br i1 %cmp.i.i, label %_ZN6icu_75L8setErrorER10UErrorCodeS0_.exit, label %if.then.i

if.then.i:                                        ; preds = %if.then
  store i32 3, ptr %status, align 4
  br label %_ZN6icu_75L8setErrorER10UErrorCodeS0_.exit

_ZN6icu_75L8setErrorER10UErrorCodeS0_.exit:       ; preds = %if.then, %if.then.i
  store i32 0, ptr %count, align 4
  br label %return

if.end:                                           ; preds = %entry
  %fValue = getelementptr inbounds i8, ptr %this, i64 8
  %fCount = getelementptr inbounds i8, ptr %this, i64 16
  %2 = load i32, ptr %fCount, align 8
  store i32 %2, ptr %count, align 4
  %3 = load ptr, ptr %fValue, align 8
  br label %return

return:                                           ; preds = %if.end, %_ZN6icu_75L8setErrorER10UErrorCodeS0_.exit
  %retval.0 = phi ptr [ null, %_ZN6icu_75L8setErrorER10UErrorCodeS0_.exit ], [ %3, %if.end ]
  ret ptr %retval.0
}